target datalayout = "e-m:e-p270:32:32-p271:32:32-p272:64:64-i64:64-i128:128-f80:128-n8:16:32:64-S128"
target triple = "x86_64-pc-linux-gnu"

; Function Attrs: nounwind uwtable
define void @QuESTAssert(i32 noundef %0, i32 noundef %1, ptr noundef %2) #0 {
  %4 = alloca i32, align 4
  %5 = alloca i32, align 4
  %6 = alloca ptr, align 8
  store i32 %0, ptr %4, align 4, !tbaa !9
  store i32 %1, ptr %5, align 4, !tbaa !9
  store ptr %2, ptr %6, align 8, !tbaa !4
  %7 = load i32, ptr %4, align 4, !tbaa !9
  %8 = icmp ne i32 %7, 0
  br i1 %8, label %15, label %9

9:                                                ; preds = %3
  %10 = load i32, ptr %5, align 4, !tbaa !9
  %11 = zext i32 %10 to i64
  %12 = getelementptr inbounds nuw [92 x ptr], ptr @errorMessages, i64 0, i64 %11
  %13 = load ptr, ptr %12, align 8, !tbaa !4
  %14 = load ptr, ptr %6, align 8, !tbaa !4
  call void @invalidQuESTInputError(ptr noundef %13, ptr noundef %14)
  br label %15

15:                                               ; preds = %9, %3
  ret void
}

; Function Attrs: nounwind uwtable
define void @validatePhaseFuncTerms(i32 noundef %0, i32 noundef %1, ptr noundef %2, ptr noundef %3, i32 noundef %4, ptr noundef %5, i32 noundef %6, ptr noundef %7) #0 {
  %9 = alloca i32, align 4
  %10 = alloca i32, align 4
  %11 = alloca ptr, align 8
  %12 = alloca ptr, align 8
  %13 = alloca i32, align 4
  %14 = alloca ptr, align 8
  %15 = alloca i32, align 4
  %16 = alloca ptr, align 8
  %17 = alloca i32, align 4
  %18 = alloca i32, align 4
  %19 = alloca i32, align 4
  %20 = alloca i32, align 4
  %21 = alloca i32, align 4
  %22 = alloca i32, align 4
  %23 = alloca i64, align 8
  %24 = alloca i32, align 4
  %25 = alloca [32768 x i64], align 16
  %26 = alloca i32, align 4
  %27 = alloca i32, align 4
  %28 = alloca i32, align 4
  store i32 %0, ptr %9, align 4, !tbaa !9
  store i32 %1, ptr %10, align 4, !tbaa !9
  store ptr %2, ptr %11, align 8, !tbaa !21
  store ptr %3, ptr %12, align 8, !tbaa !21
  store i32 %4, ptr %13, align 4, !tbaa !9
  store ptr %5, ptr %14, align 8, !tbaa !57
  store i32 %6, ptr %15, align 4, !tbaa !9
  store ptr %7, ptr %16, align 8, !tbaa !4
  %29 = load i32, ptr %13, align 4, !tbaa !9
  %30 = icmp sgt i32 %29, 0
  %31 = zext i1 %30 to i32
  %32 = load ptr, ptr %16, align 8, !tbaa !4
  call void @QuESTAssert(i32 noundef %31, i32 noundef 71, ptr noundef %32)
  call void @llvm.lifetime.start.p0(i64 4, ptr %17) #7
  store i32 0, ptr %17, align 4, !tbaa !9
  call void @llvm.lifetime.start.p0(i64 4, ptr %18) #7
  store i32 0, ptr %18, align 4, !tbaa !9
  call void @llvm.lifetime.start.p0(i64 4, ptr %19) #7
  store i32 0, ptr %19, align 4, !tbaa !9
  br label %33

33:                                               ; preds = %61, %8
  %34 = load i32, ptr %19, align 4, !tbaa !9
  %35 = load i32, ptr %13, align 4, !tbaa !9
  %36 = icmp slt i32 %34, %35
  br i1 %36, label %38, label %37

37:                                               ; preds = %33
  call void @llvm.lifetime.end.p0(i64 4, ptr %19) #7
  br label %64

38:                                               ; preds = %33
  %39 = load ptr, ptr %12, align 8, !tbaa !21
  %40 = load i32, ptr %19, align 4, !tbaa !9
  %41 = sext i32 %40 to i64
  %42 = getelementptr inbounds double, ptr %39, i64 %41
  %43 = load double, ptr %42, align 8, !tbaa !15
  %44 = call double @llvm.floor.f64(double %43)
  %45 = load ptr, ptr %12, align 8, !tbaa !21
  %46 = load i32, ptr %19, align 4, !tbaa !9
  %47 = sext i32 %46 to i64
  %48 = getelementptr inbounds double, ptr %45, i64 %47
  %49 = load double, ptr %48, align 8, !tbaa !15
  %50 = fcmp une double %44, %49
  br i1 %50, label %51, label %52

51:                                               ; preds = %38
  store i32 1, ptr %17, align 4, !tbaa !9
  br label %52

52:                                               ; preds = %51, %38
  %53 = load ptr, ptr %12, align 8, !tbaa !21
  %54 = load i32, ptr %19, align 4, !tbaa !9
  %55 = sext i32 %54 to i64
  %56 = getelementptr inbounds double, ptr %53, i64 %55
  %57 = load double, ptr %56, align 8, !tbaa !15
  %58 = fcmp olt double %57, 0.000000e+00
  br i1 %58, label %59, label %60

59:                                               ; preds = %52
  store i32 1, ptr %18, align 4, !tbaa !9
  br label %60

60:                                               ; preds = %59, %52
  br label %61

61:                                               ; preds = %60
  %62 = load i32, ptr %19, align 4, !tbaa !9
  %63 = add nsw i32 %62, 1
  store i32 %63, ptr %19, align 4, !tbaa !9
  br label %33

64:                                               ; preds = %37
  %65 = load i32, ptr %18, align 4, !tbaa !9
  %66 = icmp ne i32 %65, 0
  br i1 %66, label %67, label %89

67:                                               ; preds = %64
  call void @llvm.lifetime.start.p0(i64 4, ptr %20) #7
  store i32 0, ptr %20, align 4, !tbaa !9
  call void @llvm.lifetime.start.p0(i64 4, ptr %21) #7
  store i32 0, ptr %21, align 4, !tbaa !9
  br label %68

68:                                               ; preds = %82, %67
  %69 = load i32, ptr %21, align 4, !tbaa !9
  %70 = load i32, ptr %15, align 4, !tbaa !9
  %71 = icmp slt i32 %69, %70
  br i1 %71, label %73, label %72

72:                                               ; preds = %68
  store i32 5, ptr %22, align 4
  br label %85

73:                                               ; preds = %68
  %74 = load ptr, ptr %14, align 8, !tbaa !57
  %75 = load i32, ptr %21, align 4, !tbaa !9
  %76 = sext i32 %75 to i64
  %77 = getelementptr inbounds i64, ptr %74, i64 %76
  %78 = load i64, ptr %77, align 8, !tbaa !32
  %79 = icmp eq i64 %78, 0
  br i1 %79, label %80, label %81

80:                                               ; preds = %73
  store i32 1, ptr %20, align 4, !tbaa !9
  store i32 5, ptr %22, align 4
  br label %85

81:                                               ; preds = %73
  br label %82

82:                                               ; preds = %81
  %83 = load i32, ptr %21, align 4, !tbaa !9
  %84 = add nsw i32 %83, 1
  store i32 %84, ptr %21, align 4, !tbaa !9
  br label %68

85:                                               ; preds = %80, %72
  call void @llvm.lifetime.end.p0(i64 4, ptr %21) #7
  br label %86

86:                                               ; preds = %85
  %87 = load i32, ptr %20, align 4, !tbaa !9
  %88 = load ptr, ptr %16, align 8, !tbaa !4
  call void @QuESTAssert(i32 noundef %87, i32 noundef 79, ptr noundef %88)
  call void @llvm.lifetime.end.p0(i64 4, ptr %20) #7
  br label %89

89:                                               ; preds = %86, %64
  %90 = load i32, ptr %17, align 4, !tbaa !9
  %91 = icmp ne i32 %90, 0
  br i1 %91, label %92, label %171

92:                                               ; preds = %89
  %93 = load i32, ptr %10, align 4, !tbaa !9
  %94 = icmp eq i32 %93, 1
  br i1 %94, label %95, label %171

95:                                               ; preds = %92
  call void @llvm.lifetime.start.p0(i64 8, ptr %23) #7
  %96 = load i32, ptr %9, align 4, !tbaa !9
  %97 = sub nsw i32 %96, 1
  %98 = zext i32 %97 to i64
  %99 = shl i64 1, %98
  store i64 %99, ptr %23, align 8, !tbaa !32
  %100 = load i32, ptr %15, align 4, !tbaa !9
  %101 = sext i32 %100 to i64
  %102 = load i64, ptr %23, align 8, !tbaa !32
  %103 = icmp sge i64 %101, %102
  %104 = zext i1 %103 to i32
  %105 = load ptr, ptr %16, align 8, !tbaa !4
  call void @QuESTAssert(i32 noundef %104, i32 noundef 80, ptr noundef %105)
  call void @llvm.lifetime.start.p0(i64 4, ptr %24) #7
  %106 = load i32, ptr %9, align 4, !tbaa !9
  %107 = icmp slt i32 %106, 16
  br i1 %107, label %108, label %167

108:                                              ; preds = %95
  call void @llvm.lifetime.start.p0(i64 262144, ptr %25) #7
  call void @llvm.lifetime.start.p0(i64 4, ptr %26) #7
  store i32 0, ptr %26, align 4, !tbaa !9
  br label %109

109:                                              ; preds = %119, %108
  %110 = load i32, ptr %26, align 4, !tbaa !9
  %111 = sext i32 %110 to i64
  %112 = load i64, ptr %23, align 8, !tbaa !32
  %113 = icmp slt i64 %111, %112
  br i1 %113, label %115, label %114

114:                                              ; preds = %109
  store i32 8, ptr %22, align 4
  call void @llvm.lifetime.end.p0(i64 4, ptr %26) #7
  br label %122

115:                                              ; preds = %109
  %116 = load i32, ptr %26, align 4, !tbaa !9
  %117 = sext i32 %116 to i64
  %118 = getelementptr inbounds [32768 x i64], ptr %25, i64 0, i64 %117
  store i64 0, ptr %118, align 8, !tbaa !32
  br label %119

119:                                              ; preds = %115
  %120 = load i32, ptr %26, align 4, !tbaa !9
  %121 = add nsw i32 %120, 1
  store i32 %121, ptr %26, align 4, !tbaa !9
  br label %109

122:                                              ; preds = %114
  call void @llvm.lifetime.start.p0(i64 4, ptr %27) #7
  store i32 0, ptr %27, align 4, !tbaa !9
  br label %123

123:                                              ; preds = %144, %122
  %124 = load i32, ptr %27, align 4, !tbaa !9
  %125 = load i32, ptr %15, align 4, !tbaa !9
  %126 = icmp slt i32 %124, %125
  br i1 %126, label %128, label %127

127:                                              ; preds = %123
  store i32 11, ptr %22, align 4
  call void @llvm.lifetime.end.p0(i64 4, ptr %27) #7
  br label %147

128:                                              ; preds = %123
  %129 = load ptr, ptr %14, align 8, !tbaa !57
  %130 = load i32, ptr %27, align 4, !tbaa !9
  %131 = sext i32 %130 to i64
  %132 = getelementptr inbounds i64, ptr %129, i64 %131
  %133 = load i64, ptr %132, align 8, !tbaa !32
  %134 = icmp slt i64 %133, 0
  br i1 %134, label %135, label %143

135:                                              ; preds = %128
  %136 = load ptr, ptr %14, align 8, !tbaa !57
  %137 = load i32, ptr %27, align 4, !tbaa !9
  %138 = sext i32 %137 to i64
  %139 = getelementptr inbounds i64, ptr %136, i64 %138
  %140 = load i64, ptr %139, align 8, !tbaa !32
  %141 = sub nsw i64 -1, %140
  %142 = getelementptr inbounds [32768 x i64], ptr %25, i64 0, i64 %141
  store i64 1, ptr %142, align 8, !tbaa !32
  br label %143

143:                                              ; preds = %135, %128
  br label %144

144:                                              ; preds = %143
  %145 = load i32, ptr %27, align 4, !tbaa !9
  %146 = add nsw i32 %145, 1
  store i32 %146, ptr %27, align 4, !tbaa !9
  br label %123

147:                                              ; preds = %127
  store i32 1, ptr %24, align 4, !tbaa !9
  call void @llvm.lifetime.start.p0(i64 4, ptr %28) #7
  store i32 0, ptr %28, align 4, !tbaa !9
  br label %148

148:                                              ; preds = %162, %147
  %149 = load i32, ptr %28, align 4, !tbaa !9
  %150 = sext i32 %149 to i64
  %151 = load i64, ptr %23, align 8, !tbaa !32
  %152 = icmp slt i64 %150, %151
  br i1 %152, label %154, label %153

153:                                              ; preds = %148
  store i32 14, ptr %22, align 4
  br label %165

154:                                              ; preds = %148
  %155 = load i32, ptr %28, align 4, !tbaa !9
  %156 = sext i32 %155 to i64
  %157 = getelementptr inbounds [32768 x i64], ptr %25, i64 0, i64 %156
  %158 = load i64, ptr %157, align 8, !tbaa !32
  %159 = icmp ne i64 %158, 0
  br i1 %159, label %161, label %160

160:                                              ; preds = %154
  store i32 0, ptr %24, align 4, !tbaa !9
  store i32 14, ptr %22, align 4
  br label %165

161:                                              ; preds = %154
  br label %162

162:                                              ; preds = %161
  %163 = load i32, ptr %28, align 4, !tbaa !9
  %164 = add nsw i32 %163, 1
  store i32 %164, ptr %28, align 4, !tbaa !9
  br label %148

165:                                              ; preds = %160, %153
  call void @llvm.lifetime.end.p0(i64 4, ptr %28) #7
  br label %166

166:                                              ; preds = %165
  call void @llvm.lifetime.end.p0(i64 262144, ptr %25) #7
  br label %168

167:                                              ; preds = %95
  store i32 1, ptr %24, align 4, !tbaa !9
  br label %168

168:                                              ; preds = %167, %166
  %169 = load i32, ptr %24, align 4, !tbaa !9
  %170 = load ptr, ptr %16, align 8, !tbaa !4
  call void @QuESTAssert(i32 noundef %169, i32 noundef 80, ptr noundef %170)
  call void @llvm.lifetime.end.p0(i64 4, ptr %24) #7
  call void @llvm.lifetime.end.p0(i64 8, ptr %23) #7
  br label %171

171:                                              ; preds = %168, %92, %89
  call void @llvm.lifetime.end.p0(i64 4, ptr %18) #7
  call void @llvm.lifetime.end.p0(i64 4, ptr %17) #7
  ret void
}