; Function Attrs: nounwind uwtable
define void @validatePhaseFuncTerms(i32 noundef %0, i32 noundef %1, ptr noundef readnone captures(none) %2, ptr noundef readonly captures(none) %3, i32 noundef %4, ptr noundef readonly captures(none) %5, i32 noundef %6, ptr noundef %7) local_unnamed_addr #3 {
  %9 = alloca [32768 x i64], align 16
  %10 = icmp slt i32 %4, 1
  br i1 %10, label %.split.thread, label %.lr.ph.preheader

.split.thread:                                    ; preds = %8
  tail call void @invalidQuESTInputError(ptr noundef nonnull @.str.73, ptr noundef %7)
  br label %QuESTAssert.exit63

.lr.ph.preheader:                                 ; preds = %8
  %wide.trip.count = zext nneg i32 %4 to i64
  br label %.lr.ph

._crit_edge:                                      ; preds = %.lr.ph
  %11 = icmp eq i32 %.152, 0
  %12 = icmp ne i32 %.147, 0
  br i1 %11, label %.split, label %.preheader71

.preheader71:                                     ; preds = %._crit_edge
  %13 = icmp sgt i32 %6, 0
  br i1 %13, label %.lr.ph77.preheader, label %.split54

.lr.ph77.preheader:                               ; preds = %.preheader71
  %wide.trip.count92 = zext nneg i32 %6 to i64
  br label %.lr.ph77

.lr.ph:                                           ; preds = %.lr.ph.preheader, %.lr.ph
  %indvars.iv = phi i64 [ 0, %.lr.ph.preheader ], [ %indvars.iv.next, %.lr.ph ]
  %.04674 = phi i32 [ 0, %.lr.ph.preheader ], [ %.147, %.lr.ph ]
  %.05172 = phi i32 [ 0, %.lr.ph.preheader ], [ %.152, %.lr.ph ]
  %14 = getelementptr inbounds nuw double, ptr %3, i64 %indvars.iv
  %15 = load double, ptr %14, align 8, !tbaa !9
  %16 = tail call double @llvm.floor.f64(double %15)
  %17 = fcmp une double %16, %15
  %.147 = select i1 %17, i32 1, i32 %.04674
  %18 = fcmp olt double %15, 0.000000e+00
  %.152 = select i1 %18, i32 1, i32 %.05172
  %indvars.iv.next = add nuw nsw i64 %indvars.iv, 1
  %exitcond.not = icmp eq i64 %indvars.iv.next, %wide.trip.count
  br i1 %exitcond.not, label %._crit_edge, label %.lr.ph

19:                                               ; preds = %.lr.ph77
  %indvars.iv.next90 = add nuw nsw i64 %indvars.iv89, 1
  %exitcond93.not = icmp eq i64 %indvars.iv.next90, %wide.trip.count92
  br i1 %exitcond93.not, label %.split54, label %.lr.ph77

.split54:                                         ; preds = %19, %.preheader71
  tail call void @invalidQuESTInputError(ptr noundef nonnull @.str.81, ptr noundef %7)
  br label %.split

.lr.ph77:                                         ; preds = %.lr.ph77.preheader, %19
  %indvars.iv89 = phi i64 [ 0, %.lr.ph77.preheader ], [ %indvars.iv.next90, %19 ]
  %20 = getelementptr inbounds nuw i64, ptr %5, i64 %indvars.iv89
  %21 = load i64, ptr %20, align 8, !tbaa !38
  %22 = icmp eq i64 %21, 0
  br i1 %22, label %.split, label %19

.split:                                           ; preds = %.lr.ph77, %.split54, %._crit_edge
  %23 = icmp eq i32 %1, 1
  %or.cond = and i1 %23, %12
  br i1 %or.cond, label %24, label %QuESTAssert.exit63

24:                                               ; preds = %.split
  %25 = add nsw i32 %0, -1
  %26 = zext nneg i32 %25 to i64
  %27 = shl nuw i64 1, %26
  %28 = sext i32 %6 to i64
  %.not69 = icmp sgt i64 %27, %28
  br i1 %.not69, label %29, label %QuESTAssert.exit61

29:                                               ; preds = %24
  tail call void @invalidQuESTInputError(ptr noundef nonnull @.str.82, ptr noundef %7)
  br label %QuESTAssert.exit61

QuESTAssert.exit61:                               ; preds = %24, %29
  %30 = icmp slt i32 %0, 16
  br i1 %30, label %.preheader70, label %QuESTAssert.exit63

.preheader70:                                     ; preds = %QuESTAssert.exit61
  call void @llvm.lifetime.start.p0(i64 262144, ptr nonnull %9) #14
  %smax = tail call i64 @llvm.smax.i64(i64 %27, i64 1)
  %31 = shl nuw i64 %smax, 3
  call void @llvm.memset.p0.i64(ptr noundef nonnull align 16 dereferenceable(1) %9, i8 0, i64 %31, i1 false), !tbaa !38
  %32 = icmp sgt i32 %6, 0
  br i1 %32, label %.lr.ph82.preheader, label %.lr.ph84.preheader

.lr.ph82.preheader:                               ; preds = %.preheader70
  %wide.trip.count100 = zext nneg i32 %6 to i64
  br label %.lr.ph82

.lr.ph84.preheader:                               ; preds = %39, %.preheader70
  %smax105 = tail call i64 @llvm.smax.i64(i64 %27, i64 1)
  br label %.lr.ph84

.lr.ph82:                                         ; preds = %.lr.ph82.preheader, %39
  %indvars.iv97 = phi i64 [ 0, %.lr.ph82.preheader ], [ %indvars.iv.next98, %39 ]
  %33 = getelementptr inbounds nuw i64, ptr %5, i64 %indvars.iv97
  %34 = load i64, ptr %33, align 8, !tbaa !38
  %35 = icmp slt i64 %34, 0
  br i1 %35, label %36, label %39

36:                                               ; preds = %.lr.ph82
  %37 = xor i64 %34, -1
  %38 = getelementptr inbounds nuw [32768 x i64], ptr %9, i64 0, i64 %37
  store i64 1, ptr %38, align 8, !tbaa !38
  br label %39

39:                                               ; preds = %.lr.ph82, %36
  %indvars.iv.next98 = add nuw nsw i64 %indvars.iv97, 1
  %exitcond101.not = icmp eq i64 %indvars.iv.next98, %wide.trip.count100
  br i1 %exitcond101.not, label %.lr.ph84.preheader, label %.lr.ph82

40:                                               ; preds = %.lr.ph84
  %indvars.iv.next103 = add nuw nsw i64 %indvars.iv102, 1
  %exitcond106.not = icmp eq i64 %indvars.iv.next103, %smax105
  br i1 %exitcond106.not, label %._crit_edge85, label %.lr.ph84

.lr.ph84:                                         ; preds = %.lr.ph84.preheader, %40
  %indvars.iv102 = phi i64 [ 0, %.lr.ph84.preheader ], [ %indvars.iv.next103, %40 ]
  %41 = getelementptr inbounds nuw [32768 x i64], ptr %9, i64 0, i64 %indvars.iv102
  %42 = load i64, ptr %41, align 8, !tbaa !38
  %.not59 = icmp eq i64 %42, 0
  br i1 %.not59, label %43, label %40

._crit_edge85:                                    ; preds = %40
  call void @llvm.lifetime.end.p0(i64 262144, ptr nonnull %9) #14
  br label %QuESTAssert.exit63

43:                                               ; preds = %.lr.ph84
  call void @llvm.lifetime.end.p0(i64 262144, ptr nonnull %9) #14
  tail call void @invalidQuESTInputError(ptr noundef nonnull @.str.82, ptr noundef %7)
  br label %QuESTAssert.exit63

QuESTAssert.exit63:                               ; preds = %.split.thread, %QuESTAssert.exit61, %43, %._crit_edge85, %.split
  ret void
}